target datalayout = "e-m:e-p270:32:32-p271:32:32-p272:64:64-i64:64-i128:128-f80:128-n8:16:32:64-S128"
target triple = "x86_64-pc-linux-gnu"

%union.anon.8 = type { i32 }

; Function Attrs: mustprogress nounwind uwtable
define hidden noundef zeroext i16 @_ZN4ncnn18float32_to_float16Ef(float noundef nofpclass(nan inf) %0) #8 {
  %2 = alloca float, align 4
  %3 = alloca %union.anon.8, align 4
  %4 = alloca i16, align 2
  %5 = alloca i16, align 2
  %6 = alloca i32, align 4
  %7 = alloca i16, align 2
  %8 = alloca i16, align 2
  store float %0, ptr %2, align 4, !tbaa !41
  call void @llvm.lifetime.start.p0(i64 4, ptr %3) #9
  %9 = load float, ptr %2, align 4, !tbaa !41
  store float %9, ptr %3, align 4, !tbaa !53
  call void @llvm.lifetime.start.p0(i64 2, ptr %4) #9
  %10 = load i32, ptr %3, align 4, !tbaa !53
  %11 = and i32 %10, -2147483648
  %12 = lshr i32 %11, 31
  %13 = trunc i32 %12 to i16
  store i16 %13, ptr %4, align 2, !tbaa !54
  call void @llvm.lifetime.start.p0(i64 2, ptr %5) #9
  %14 = load i32, ptr %3, align 4, !tbaa !53
  %15 = and i32 %14, 2139095040
  %16 = lshr i32 %15, 23
  %17 = trunc i32 %16 to i16
  store i16 %17, ptr %5, align 2, !tbaa !54
  call void @llvm.lifetime.start.p0(i64 4, ptr %6) #9
  %18 = load i32, ptr %3, align 4, !tbaa !53
  %19 = and i32 %18, 8388607
  store i32 %19, ptr %6, align 4, !tbaa !25
  call void @llvm.lifetime.start.p0(i64 2, ptr %7) #9
  %20 = load i16, ptr %5, align 2, !tbaa !54
  %21 = zext i16 %20 to i32
  %22 = icmp eq i32 %21, 0
  br i1 %22, label %23, label %30

23:                                               ; preds = %1
  %24 = load i16, ptr %4, align 2, !tbaa !54
  %25 = zext i16 %24 to i32
  %26 = shl i32 %25, 15
  %27 = or i32 %26, 0
  %28 = or i32 %27, 0
  %29 = trunc i32 %28 to i16
  store i16 %29, ptr %7, align 2, !tbaa !54
  br label %85

30:                                               ; preds = %1
  %31 = load i16, ptr %5, align 2, !tbaa !54
  %32 = zext i16 %31 to i32
  %33 = icmp eq i32 %32, 255
  br i1 %33, label %34, label %44

34:                                               ; preds = %30
  %35 = load i16, ptr %4, align 2, !tbaa !54
  %36 = zext i16 %35 to i32
  %37 = shl i32 %36, 15
  %38 = or i32 %37, 31744
  %39 = load i32, ptr %6, align 4, !tbaa !25
  %40 = icmp ne i32 %39, 0
  %41 = select i1 %40, i32 512, i32 0
  %42 = or i32 %38, %41
  %43 = trunc i32 %42 to i16
  store i16 %43, ptr %7, align 2, !tbaa !54
  br label %84

44:                                               ; preds = %30
  call void @llvm.lifetime.start.p0(i64 2, ptr %8) #9
  %45 = load i16, ptr %5, align 2, !tbaa !54
  %46 = zext i16 %45 to i32
  %47 = add nsw i32 %46, -112
  %48 = trunc i32 %47 to i16
  store i16 %48, ptr %8, align 2, !tbaa !54
  %49 = load i16, ptr %8, align 2, !tbaa !54
  %50 = sext i16 %49 to i32
  %51 = icmp sge i32 %50, 31
  br i1 %51, label %52, label %59

52:                                               ; preds = %44
  %53 = load i16, ptr %4, align 2, !tbaa !54
  %54 = zext i16 %53 to i32
  %55 = shl i32 %54, 15
  %56 = or i32 %55, 31744
  %57 = or i32 %56, 0
  %58 = trunc i32 %57 to i16
  store i16 %58, ptr %7, align 2, !tbaa !54
  br label %83

59:                                               ; preds = %44
  %60 = load i16, ptr %8, align 2, !tbaa !54
  %61 = sext i16 %60 to i32
  %62 = icmp sle i32 %61, 0
  br i1 %62, label %63, label %70

63:                                               ; preds = %59
  %64 = load i16, ptr %4, align 2, !tbaa !54
  %65 = zext i16 %64 to i32
  %66 = shl i32 %65, 15
  %67 = or i32 %66, 0
  %68 = or i32 %67, 0
  %69 = trunc i32 %68 to i16
  store i16 %69, ptr %7, align 2, !tbaa !54
  br label %82

70:                                               ; preds = %59
  %71 = load i16, ptr %4, align 2, !tbaa !54
  %72 = zext i16 %71 to i32
  %73 = shl i32 %72, 15
  %74 = load i16, ptr %8, align 2, !tbaa !54
  %75 = sext i16 %74 to i32
  %76 = shl i32 %75, 10
  %77 = or i32 %73, %76
  %78 = load i32, ptr %6, align 4, !tbaa !25
  %79 = lshr i32 %78, 13
  %80 = or i32 %77, %79
  %81 = trunc i32 %80 to i16
  store i16 %81, ptr %7, align 2, !tbaa !54
  br label %82

82:                                               ; preds = %70, %63
  br label %83

83:                                               ; preds = %82, %52
  call void @llvm.lifetime.end.p0(i64 2, ptr %8) #9
  br label %84

84:                                               ; preds = %83, %34
  br label %85

85:                                               ; preds = %84, %23
  %86 = load i16, ptr %7, align 2, !tbaa !54
  call void @llvm.lifetime.end.p0(i64 2, ptr %7) #9
  call void @llvm.lifetime.end.p0(i64 4, ptr %6) #9
  call void @llvm.lifetime.end.p0(i64 2, ptr %5) #9
  call void @llvm.lifetime.end.p0(i64 2, ptr %4) #9
  call void @llvm.lifetime.end.p0(i64 4, ptr %3) #9
  ret i16 %86
}