; Function Attrs: mustprogress nofree norecurse nosync nounwind willreturn memory(none) uwtable
define hidden noundef zeroext i16 @_ZN4ncnn18float32_to_float16Ef(float noundef nofpclass(nan inf) %0) local_unnamed_addr #9 {
  %2 = bitcast float %0 to i32
  %3 = lshr i32 %2, 31
  %4 = lshr i32 %2, 23
  %5 = and i32 %4, 255
  %6 = and i32 %2, 8388607
  %trunc = trunc i32 %4 to i8
  switch i8 %trunc, label %16 [
    i8 0, label %7
    i8 -1, label %10
  ]

7:                                                ; preds = %1
  %8 = shl nuw nsw i32 %3, 15
  %9 = trunc nuw i32 %8 to i16
  br label %34

10:                                               ; preds = %1
  %11 = shl nuw nsw i32 %3, 15
  %.not = icmp eq i32 %6, 0
  %12 = select i1 %.not, i32 0, i32 512
  %13 = or disjoint i32 %12, %11
  %14 = trunc nuw i32 %13 to i16
  %15 = or disjoint i16 %14, 31744
  br label %34

16:                                               ; preds = %1
  %17 = icmp samesign ugt i32 %5, 142
  br i1 %17, label %18, label %22

18:                                               ; preds = %16
  %19 = shl nuw nsw i32 %3, 15
  %20 = trunc nuw i32 %19 to i16
  %21 = or disjoint i16 %20, 31744
  br label %34

22:                                               ; preds = %16
  %23 = icmp samesign ult i32 %5, 113
  %24 = shl nuw nsw i32 %3, 15
  br i1 %23, label %25, label %27

25:                                               ; preds = %22
  %26 = trunc nuw i32 %24 to i16
  br label %34

27:                                               ; preds = %22
  %28 = shl nuw nsw i32 %4, 10
  %29 = add nuw nsw i32 %28, 16384
  %30 = lshr i32 %6, 13
  %31 = or disjoint i32 %30, %29
  %32 = or i32 %31, %24
  %33 = trunc i32 %32 to i16
  br label %34

34:                                               ; preds = %18, %27, %25, %10, %7
  %.0 = phi i16 [ %9, %7 ], [ %15, %10 ], [ %21, %18 ], [ %26, %25 ], [ %33, %27 ]
  ret i16 %.0
}